target datalayout = "e-m:e-p270:32:32-p271:32:32-p272:64:64-i64:64-i128:128-f80:128-n8:16:32:64-S128"
target triple = "x86_64-pc-linux-gnu"

%union.LWLockPadded = type { %struct.LWLock, [112 x i8] }
%struct.LWLock = type { i16, %struct.pg_atomic_uint32, %struct.proclist_head }
%struct.pg_atomic_uint32 = type { i32 }
%struct.proclist_head = type { i32, i32 }
%struct.TransamVariablesData = type { i32, i32, %struct.FullTransactionId, i32, i32, i32, i32, i32, i32, i32, i32, %struct.FullTransactionId, i64, i32 }
%struct.FullTransactionId = type { i64 }

@MainLWLockArray = external global ptr, align 8
@TransamVariables = external global ptr, align 8

; Function Attrs: nounwind uwtable
define dso_local void @SetCommitTsLimit(i32 noundef %0, i32 noundef %1) #0 {
  %3 = alloca i32, align 4
  %4 = alloca i32, align 4
  store i32 %0, ptr %3, align 4
  store i32 %1, ptr %4, align 4
  %5 = load ptr, ptr @MainLWLockArray, align 8
  %6 = getelementptr inbounds %union.LWLockPadded, ptr %5, i64 39
  %7 = call zeroext i1 @LWLockAcquire(ptr noundef %6, i32 noundef 0)
  %8 = load ptr, ptr @TransamVariables, align 8
  %9 = getelementptr inbounds nuw %struct.TransamVariablesData, ptr %8, i32 0, i32 9
  %10 = load i32, ptr %9, align 8
  %11 = icmp ne i32 %10, 0
  br i1 %11, label %12, label %33

12:                                               ; preds = %2
  %13 = load ptr, ptr @TransamVariables, align 8
  %14 = getelementptr inbounds nuw %struct.TransamVariablesData, ptr %13, i32 0, i32 9
  %15 = load i32, ptr %14, align 8
  %16 = load i32, ptr %3, align 4
  %17 = call zeroext i1 @TransactionIdPrecedes(i32 noundef %15, i32 noundef %16)
  br i1 %17, label %18, label %22

18:                                               ; preds = %12
  %19 = load i32, ptr %3, align 4
  %20 = load ptr, ptr @TransamVariables, align 8
  %21 = getelementptr inbounds nuw %struct.TransamVariablesData, ptr %20, i32 0, i32 9
  store i32 %19, ptr %21, align 8
  br label %22

22:                                               ; preds = %18, %12
  %23 = load i32, ptr %4, align 4
  %24 = load ptr, ptr @TransamVariables, align 8
  %25 = getelementptr inbounds nuw %struct.TransamVariablesData, ptr %24, i32 0, i32 10
  %26 = load i32, ptr %25, align 4
  %27 = call zeroext i1 @TransactionIdPrecedes(i32 noundef %23, i32 noundef %26)
  br i1 %27, label %28, label %32

28:                                               ; preds = %22
  %29 = load i32, ptr %4, align 4
  %30 = load ptr, ptr @TransamVariables, align 8
  %31 = getelementptr inbounds nuw %struct.TransamVariablesData, ptr %30, i32 0, i32 10
  store i32 %29, ptr %31, align 4
  br label %32

32:                                               ; preds = %28, %22
  br label %40

33:                                               ; preds = %2
  %34 = load i32, ptr %3, align 4
  %35 = load ptr, ptr @TransamVariables, align 8
  %36 = getelementptr inbounds nuw %struct.TransamVariablesData, ptr %35, i32 0, i32 9
  store i32 %34, ptr %36, align 8
  %37 = load i32, ptr %4, align 4
  %38 = load ptr, ptr @TransamVariables, align 8
  %39 = getelementptr inbounds nuw %struct.TransamVariablesData, ptr %38, i32 0, i32 10
  store i32 %37, ptr %39, align 4
  br label %40

40:                                               ; preds = %33, %32
  %41 = load ptr, ptr @MainLWLockArray, align 8
  %42 = getelementptr inbounds %union.LWLockPadded, ptr %41, i64 39
  call void @LWLockRelease(ptr noundef %42)
  ret void
}