; Function Attrs: nounwind uwtable
define dso_local void @SetCommitTsLimit(i32 noundef %0, i32 noundef %1) local_unnamed_addr #0 {
  %3 = load ptr, ptr @MainLWLockArray, align 8
  %4 = getelementptr inbounds nuw i8, ptr %3, i64 4992
  %5 = tail call zeroext i1 @LWLockAcquire(ptr noundef nonnull %4, i32 noundef 0) #9
  %6 = load ptr, ptr @TransamVariables, align 8
  %7 = getelementptr inbounds nuw i8, ptr %6, i64 40
  %8 = load i32, ptr %7, align 8
  %.not = icmp eq i32 %8, 0
  br i1 %.not, label %19, label %9

9:                                                ; preds = %2
  %10 = tail call zeroext i1 @TransactionIdPrecedes(i32 noundef %8, i32 noundef %0) #9
  %.pre = load ptr, ptr @TransamVariables, align 8
  br i1 %10, label %11, label %13

11:                                               ; preds = %9
  %12 = getelementptr inbounds nuw i8, ptr %.pre, i64 40
  store i32 %0, ptr %12, align 8
  br label %13

13:                                               ; preds = %11, %9
  %14 = getelementptr inbounds nuw i8, ptr %.pre, i64 44
  %15 = load i32, ptr %14, align 4
  %16 = tail call zeroext i1 @TransactionIdPrecedes(i32 noundef %1, i32 noundef %15) #9
  br i1 %16, label %17, label %21

17:                                               ; preds = %13
  %18 = load ptr, ptr @TransamVariables, align 8
  br label %.sink.split

19:                                               ; preds = %2
  store i32 %0, ptr %7, align 8
  br label %.sink.split

.sink.split:                                      ; preds = %19, %17
  %.sink6 = phi ptr [ %18, %17 ], [ %6, %19 ]
  %20 = getelementptr inbounds nuw i8, ptr %.sink6, i64 44
  store i32 %1, ptr %20, align 4
  br label %21

21:                                               ; preds = %.sink.split, %13
  %22 = load ptr, ptr @MainLWLockArray, align 8
  %23 = getelementptr inbounds nuw i8, ptr %22, i64 4992
  tail call void @LWLockRelease(ptr noundef nonnull %23) #9
  ret void
}